target datalayout = "e-m:e-p270:32:32-p271:32:32-p272:64:64-i64:64-i128:128-f80:128-n8:16:32:64-S128"
target triple = "x86_64-pc-linux-gnu"

%"class.zmq::thread_t" = type { ptr, ptr, [16 x i8], i8, i64, i32, i32, %"class.std::set" }
%"class.std::set" = type { %"class.std::_Rb_tree" }
%"class.std::_Rb_tree" = type { %"struct.std::_Rb_tree<int, int, std::_Identity<int>, std::less<int>>::_Rb_tree_impl" }
%"struct.std::_Rb_tree<int, int, std::_Identity<int>, std::less<int>>::_Rb_tree_impl" = type { [8 x i8], %"struct.std::_Rb_tree_header" }
%"struct.std::_Rb_tree_header" = type { %"struct.std::_Rb_tree_node_base", i64 }
%"struct.std::_Rb_tree_node_base" = type { i32, ptr, ptr, ptr }

; Function Attrs: mustprogress nounwind uwtable
define void @_ZN3zmq8thread_t15applyThreadNameEv(ptr noundef nonnull align 8 dereferenceable(104) %0) #0 align 2 {
  %2 = alloca ptr, align 8
  %3 = alloca i32, align 4
  %4 = alloca i32, align 4
  store ptr %0, ptr %2, align 8, !tbaa !3
  %5 = load ptr, ptr %2, align 8
  %6 = getelementptr inbounds nuw %"class.zmq::thread_t", ptr %5, i32 0, i32 2
  %7 = getelementptr inbounds [16 x i8], ptr %6, i64 0, i64 0
  %8 = load i8, ptr %7, align 8, !tbaa !49
  %9 = icmp ne i8 %8, 0
  br i1 %9, label %11, label %10

10:                                               ; preds = %1
  br label %22

11:                                               ; preds = %1
  call void @llvm.lifetime.start.p0(i64 4, ptr %3) #15
  %12 = call i64 @pthread_self() #16
  %13 = getelementptr inbounds nuw %"class.zmq::thread_t", ptr %5, i32 0, i32 2
  %14 = getelementptr inbounds [16 x i8], ptr %13, i64 0, i64 0
  %15 = call i32 @pthread_setname_np(i64 noundef %12, ptr noundef %14) #15
  store i32 %15, ptr %3, align 4, !tbaa !29
  %16 = load i32, ptr %3, align 4, !tbaa !29
  %17 = icmp ne i32 %16, 0
  br i1 %17, label %18, label %19

18:                                               ; preds = %11
  store i32 1, ptr %4, align 4
  br label %20

19:                                               ; preds = %11
  store i32 0, ptr %4, align 4
  br label %20

20:                                               ; preds = %19, %18
  call void @llvm.lifetime.end.p0(i64 4, ptr %3) #15
  %21 = load i32, ptr %4, align 4
  switch i32 %21, label %23 [
    i32 0, label %22
    i32 1, label %22
  ]

22:                                               ; preds = %10, %20, %20
  ret void

23:                                               ; preds = %20
  unreachable
}