; Function Attrs: mustprogress nounwind uwtable
define void @_ZN3zmq8thread_t15applyThreadNameEv(ptr noundef nonnull align 8 dereferenceable(104) %0) local_unnamed_addr #10 align 2 {
  %2 = getelementptr inbounds nuw i8, ptr %0, i64 16
  %3 = load i8, ptr %2, align 8, !tbaa !28
  %.not = icmp eq i8 %3, 0
  br i1 %.not, label %7, label %4

4:                                                ; preds = %1
  %5 = tail call i64 @pthread_self() #18
  %6 = tail call i32 @pthread_setname_np(i64 noundef %5, ptr noundef nonnull %2) #16
  br label %7

7:                                                ; preds = %1, %4
  ret void
}